; Function Attrs: nounwind uwtable
define dso_local range(i32 -1, 1) i32 @unpackstr_xmalloc(ptr noundef writeonly captures(none) initializes((0, 8)) %0, ptr noundef captures(none) initializes((0, 4)) %1, ptr noundef captures(none) %2) #0 {
  store ptr null, ptr %0, align 8
  %4 = getelementptr inbounds nuw i8, ptr %2, i64 16
  %5 = load i32, ptr %4, align 8
  %6 = getelementptr inbounds nuw i8, ptr %2, i64 20
  %7 = load i32, ptr %6, align 4
  %8 = sub i32 %5, %7
  %9 = icmp ult i32 %8, 4
  br i1 %9, label %unpack32.exit, label %10

10:                                               ; preds = %3
  %11 = getelementptr inbounds nuw i8, ptr %2, i64 8
  %12 = load ptr, ptr %11, align 8
  %13 = zext i32 %7 to i64
  %14 = getelementptr inbounds nuw i8, ptr %12, i64 %13
  %.0.copyload.i = load i32, ptr %14, align 1
  %15 = tail call noundef i32 @llvm.bswap.i32(i32 %.0.copyload.i)
  store i32 %15, ptr %1, align 4
  %16 = load i32, ptr %6, align 4
  %17 = add i32 %16, 4
  store i32 %17, ptr %6, align 4
  %18 = load i32, ptr %1, align 4
  %.not27 = icmp eq i32 %18, 0
  br i1 %.not27, label %47, label %19

19:                                               ; preds = %10
  %20 = icmp ugt i32 %18, 1073741824
  br i1 %20, label %21, label %23

21:                                               ; preds = %19
  %22 = tail call i32 (ptr, ...) @error(ptr noundef nonnull @.str.15, ptr noundef nonnull @__func__.unpackstr_xmalloc, i32 noundef %18, i32 noundef 1073741824) #14
  br label %unpack32.exit

23:                                               ; preds = %19
  %24 = load i32, ptr %4, align 8
  %25 = sub i32 %24, %17
  %26 = icmp ult i32 %25, %18
  br i1 %26, label %unpack32.exit, label %27

27:                                               ; preds = %23
  %28 = load ptr, ptr %11, align 8
  %29 = add nsw i32 %18, -1
  %30 = add i32 %29, %17
  %31 = zext i32 %30 to i64
  %32 = getelementptr inbounds nuw i8, ptr %28, i64 %31
  %33 = load i8, ptr %32, align 1
  %.not28 = icmp eq i8 %33, 0
  br i1 %.not28, label %34, label %unpack32.exit

34:                                               ; preds = %27
  %35 = zext nneg i32 %18 to i64
  %36 = tail call ptr @slurm_xcalloc(i64 noundef 1, i64 noundef %35, i1 noundef zeroext true, i1 noundef zeroext true, ptr noundef nonnull @.str.1, i32 noundef 969, ptr noundef nonnull @__func__.unpackstr_xmalloc) #14
  store ptr %36, ptr %0, align 8
  %.not29 = icmp eq ptr %36, null
  br i1 %.not29, label %unpack32.exit, label %37

37:                                               ; preds = %34
  %38 = load ptr, ptr %11, align 8
  %39 = load i32, ptr %6, align 4
  %40 = zext i32 %39 to i64
  %41 = getelementptr inbounds nuw i8, ptr %38, i64 %40
  %42 = load i32, ptr %1, align 4
  %43 = zext i32 %42 to i64
  tail call void @llvm.memcpy.p0.p0.i64(ptr nonnull align 1 %36, ptr align 1 %41, i64 %43, i1 false)
  %44 = load i32, ptr %1, align 4
  %45 = load i32, ptr %6, align 4
  %46 = add i32 %45, %44
  store i32 %46, ptr %6, align 4
  br label %47

unpack32.exit:                                    ; preds = %3, %34, %27, %23, %21
  store i32 0, ptr %1, align 4
  br label %47

47:                                               ; preds = %10, %unpack32.exit, %37
  %.025 = phi i32 [ -1, %unpack32.exit ], [ 0, %37 ], [ 0, %10 ]
  ret i32 %.025
}